target datalayout = "e-m:e-p270:32:32-p271:32:32-p272:64:64-i64:64-i128:128-f80:128-n8:16:32:64-S128"
target triple = "x86_64-pc-linux-gnu"

%struct.expert_field = type { i32, i32 }
%struct._packet_info = type { ptr, ptr, i32, i32, %struct.nstime_t, %struct.nstime_t, %struct.nstime_t, i8, ptr, ptr, ptr, ptr, %struct._address, %struct._address, %struct._address, %struct._address, %struct._address, %struct._address, i32, ptr, i8, [3 x i8], %struct.anon, i32, i32, i32, i32, ptr, i8, ptr, ptr, i16, i16, i32, i32, i16, i32, i32, ptr, ptr, ptr, i8, i8, i16, i16, i16, i32, i16, i16, ptr, ptr, ptr, ptr, ptr, i32, i32 }
%struct.nstime_t = type { i64, i32 }
%struct._address = type { i32, i32, ptr, ptr }
%struct.anon = type { i8, [3 x i8] }

@hf_mip6_opt_acc_net_id_sub = internal global i32 0, align 4
@hf_mip6_opt_acc_net_id_sub_opt = internal global i32 0, align 4
@hf_mip6_opt_acc_net_id_sub_opt_len = internal global i32 0, align 4
@hf_mip6_opt_acc_net_id_sub_opt_e_bit = internal global i32 0, align 4
@hf_mip6_opt_acc_net_id_sub_opt_net_name_len = internal global i32 0, align 4
@hf_mip6_opt_acc_net_id_sub_opt_net_name = internal global i32 0, align 4
@hf_mip6_opt_acc_net_id_sub_opt_net_name_data = internal global i32 0, align 4
@hf_mip6_opt_acc_net_id_sub_opt_ap_name_len = internal global i32 0, align 4
@hf_mip6_opt_acc_net_id_sub_opt_ap_name = internal global i32 0, align 4
@hf_mip6_opt_acc_net_id_sub_opt_geo_latitude_degrees = internal global i32 0, align 4
@hf_mip6_opt_acc_net_id_sub_opt_geo_longitude_degrees = internal global i32 0, align 4
@hf_mip6_opt_acc_net_id_sub_opt_op_id_type = internal global i32 0, align 4
@hf_mip6_opt_acc_net_id_sub_opt_op_id = internal global i32 0, align 4
@ett_mip6_opt_acc_net_id = internal global i32 0, align 4
@ett_mip6_sub_opt_acc_net_id = internal global i32 0, align 4
@ei_mip6_ani_type_not_dissected = internal global %struct.expert_field zeroinitializer, align 4
@proto_mip6_option_acc_net_id = internal global i32 0, align 4
@.str.763 = private unnamed_addr constant [17 x i8] c": %s (t=%d,l=%d)\00", align 1
@.str.764 = private unnamed_addr constant [24 x i8] c"Unknown ANI Type (%02d)\00", align 1
@.str.765 = private unnamed_addr constant [18 x i8] c" Network Name: %s\00", align 1
@.str.766 = private unnamed_addr constant [13 x i8] c" AP Name: %s\00", align 1

; Function Attrs: null_pointer_is_valid sspstrong uwtable
define internal i32 @dissect_pmip6_opt_acc_net_id(ptr noundef %0, ptr noundef %1, ptr noundef %2, ptr noundef %3) #0 {
  %5 = alloca ptr, align 8
  %6 = alloca ptr, align 8
  %7 = alloca ptr, align 8
  %8 = alloca ptr, align 8
  %9 = alloca ptr, align 8
  %10 = alloca ptr, align 8
  %11 = alloca ptr, align 8
  %12 = alloca i16, align 2
  %13 = alloca i8, align 1
  %14 = alloca i8, align 1
  %15 = alloca i8, align 1
  %16 = alloca i8, align 1
  %17 = alloca ptr, align 8
  %18 = alloca i32, align 4
  %19 = alloca i32, align 4
  %20 = alloca i32, align 4
  %21 = alloca ptr, align 8
  store ptr %0, ptr %5, align 8
  store ptr %1, ptr %6, align 8
  store ptr %2, ptr %7, align 8
  store ptr %3, ptr %8, align 8
  call void @llvm.lifetime.start.p0(i64 8, ptr %9) #6
  call void @llvm.lifetime.start.p0(i64 8, ptr %10) #6
  call void @llvm.lifetime.start.p0(i64 8, ptr %11) #6
  call void @llvm.lifetime.start.p0(i64 2, ptr %12) #6
  call void @llvm.lifetime.start.p0(i64 1, ptr %13) #6
  call void @llvm.lifetime.start.p0(i64 1, ptr %14) #6
  call void @llvm.lifetime.start.p0(i64 1, ptr %15) #6
  call void @llvm.lifetime.start.p0(i64 1, ptr %16) #6
  call void @llvm.lifetime.start.p0(i64 8, ptr %17) #6
  call void @llvm.lifetime.start.p0(i64 4, ptr %18) #6
  %22 = load ptr, ptr %5, align 8
  %23 = call i32 @tvb_reported_length(ptr noundef %22)
  %24 = sub i32 %23, 2
  store i32 %24, ptr %18, align 4
  call void @llvm.lifetime.start.p0(i64 4, ptr %19) #6
  store i32 2, ptr %19, align 4
  call void @llvm.lifetime.start.p0(i64 4, ptr %20) #6
  %25 = load ptr, ptr %5, align 8
  %26 = call i32 @tvb_reported_length(ptr noundef %25)
  store i32 %26, ptr %20, align 4
  %27 = load ptr, ptr %7, align 8
  %28 = load ptr, ptr %6, align 8
  %29 = load ptr, ptr %5, align 8
  %30 = load i32, ptr @proto_mip6_option_acc_net_id, align 4
  %31 = load i32, ptr @ett_mip6_opt_acc_net_id, align 4
  %32 = load i32, ptr %18, align 4
  %33 = call ptr @mip6_var_option_header(ptr noundef %27, ptr noundef %28, ptr noundef %29, i32 noundef %30, i32 noundef %31, ptr noundef %10, i32 noundef %32, i32 noundef 3)
  store ptr %33, ptr %9, align 8
  br label %34

34:                                               ; preds = %206, %4
  %35 = load i32, ptr %19, align 4
  %36 = load i32, ptr %20, align 4
  %37 = icmp slt i32 %35, %36
  br i1 %37, label %38, label %207

38:                                               ; preds = %34
  %39 = load ptr, ptr %9, align 8
  %40 = load i32, ptr @hf_mip6_opt_acc_net_id_sub, align 4
  %41 = load ptr, ptr %5, align 8
  %42 = load i32, ptr %19, align 4
  %43 = call ptr @proto_tree_add_item(ptr noundef %39, i32 noundef %40, ptr noundef %41, i32 noundef %42, i32 noundef 2, i32 noundef 0)
  store ptr %43, ptr %10, align 8
  %44 = load ptr, ptr %10, align 8
  %45 = load i32, ptr @ett_mip6_sub_opt_acc_net_id, align 4
  %46 = call ptr @proto_item_add_subtree(ptr noundef %44, i32 noundef %45)
  store ptr %46, ptr %11, align 8
  %47 = load ptr, ptr %11, align 8
  %48 = load i32, ptr @hf_mip6_opt_acc_net_id_sub_opt, align 4
  %49 = load ptr, ptr %5, align 8
  %50 = load i32, ptr %19, align 4
  %51 = call ptr @proto_tree_add_item(ptr noundef %47, i32 noundef %48, ptr noundef %49, i32 noundef %50, i32 noundef 1, i32 noundef 0)
  %52 = load ptr, ptr %5, align 8
  %53 = load i32, ptr %19, align 4
  %54 = call zeroext i8 @tvb_get_uint8(ptr noundef %52, i32 noundef %53)
  store i8 %54, ptr %13, align 1
  %55 = load i32, ptr %19, align 4
  %56 = add i32 %55, 1
  store i32 %56, ptr %19, align 4
  %57 = load ptr, ptr %11, align 8
  %58 = load i32, ptr @hf_mip6_opt_acc_net_id_sub_opt_len, align 4
  %59 = load ptr, ptr %5, align 8
  %60 = load i32, ptr %19, align 4
  %61 = call ptr @proto_tree_add_item(ptr noundef %57, i32 noundef %58, ptr noundef %59, i32 noundef %60, i32 noundef 1, i32 noundef 0)
  %62 = load ptr, ptr %5, align 8
  %63 = load i32, ptr %19, align 4
  %64 = call zeroext i8 @tvb_get_uint8(ptr noundef %62, i32 noundef %63)
  %65 = zext i8 %64 to i16
  store i16 %65, ptr %12, align 2
  %66 = load i32, ptr %19, align 4
  %67 = add i32 %66, 1
  store i32 %67, ptr %19, align 4
  %68 = load ptr, ptr %10, align 8
  %69 = load i8, ptr %13, align 1
  %70 = zext i8 %69 to i32
  %71 = call ptr @val_to_str(i32 noundef %70, ptr noundef @mmip6_opt_acc_net_id_sub_opt_vals, ptr noundef @.str.764)
  %72 = load i8, ptr %13, align 1
  %73 = zext i8 %72 to i32
  %74 = load i16, ptr %12, align 2
  %75 = sext i16 %74 to i32
  call void (ptr, ptr, ...) @proto_item_append_text(ptr noundef %68, ptr noundef @.str.763, ptr noundef %71, i32 noundef %73, i32 noundef %75)
  %76 = load ptr, ptr %10, align 8
  %77 = load i16, ptr %12, align 2
  %78 = sext i16 %77 to i32
  %79 = add i32 %78, 2
  call void @proto_item_set_len(ptr noundef %76, i32 noundef %79)
  %80 = load i8, ptr %13, align 1
  %81 = zext i8 %80 to i32
  switch i32 %81, label %194 [
    i32 1, label %82
    i32 2, label %158
    i32 3, label %173
  ]

82:                                               ; preds = %38
  %83 = load ptr, ptr %5, align 8
  %84 = load i32, ptr %19, align 4
  %85 = call zeroext i8 @tvb_get_uint8(ptr noundef %83, i32 noundef %84)
  store i8 %85, ptr %14, align 1
  %86 = load ptr, ptr %11, align 8
  %87 = load i32, ptr @hf_mip6_opt_acc_net_id_sub_opt_e_bit, align 4
  %88 = load ptr, ptr %5, align 8
  %89 = load i32, ptr %19, align 4
  %90 = call ptr @proto_tree_add_item(ptr noundef %86, i32 noundef %87, ptr noundef %88, i32 noundef %89, i32 noundef 1, i32 noundef 0)
  %91 = load i32, ptr %19, align 4
  %92 = add i32 %91, 1
  store i32 %92, ptr %19, align 4
  %93 = load ptr, ptr %5, align 8
  %94 = load i32, ptr %19, align 4
  %95 = call zeroext i8 @tvb_get_uint8(ptr noundef %93, i32 noundef %94)
  store i8 %95, ptr %15, align 1
  %96 = load ptr, ptr %11, align 8
  %97 = load i32, ptr @hf_mip6_opt_acc_net_id_sub_opt_net_name_len, align 4
  %98 = load ptr, ptr %5, align 8
  %99 = load i32, ptr %19, align 4
  %100 = call ptr @proto_tree_add_item(ptr noundef %96, i32 noundef %97, ptr noundef %98, i32 noundef %99, i32 noundef 1, i32 noundef 0)
  %101 = load i32, ptr %19, align 4
  %102 = add i32 %101, 1
  store i32 %102, ptr %19, align 4
  %103 = load i8, ptr %14, align 1
  %104 = zext i8 %103 to i32
  %105 = icmp eq i32 %104, 128
  br i1 %105, label %106, label %119

106:                                              ; preds = %82
  call void @llvm.lifetime.start.p0(i64 8, ptr %21) #6
  %107 = load ptr, ptr %11, align 8
  %108 = load i32, ptr @hf_mip6_opt_acc_net_id_sub_opt_net_name, align 4
  %109 = load ptr, ptr %5, align 8
  %110 = load i32, ptr %19, align 4
  %111 = load i8, ptr %15, align 1
  %112 = zext i8 %111 to i32
  %113 = load ptr, ptr %6, align 8
  %114 = getelementptr inbounds nuw %struct._packet_info, ptr %113, i32 0, i32 51
  %115 = load ptr, ptr %114, align 8
  %116 = call ptr @proto_tree_add_item_ret_string(ptr noundef %107, i32 noundef %108, ptr noundef %109, i32 noundef %110, i32 noundef %112, i32 noundef 2, ptr noundef %115, ptr noundef %21)
  %117 = load ptr, ptr %10, align 8
  %118 = load ptr, ptr %21, align 8
  call void (ptr, ptr, ...) @proto_item_append_text(ptr noundef %117, ptr noundef @.str.765, ptr noundef %118)
  call void @llvm.lifetime.end.p0(i64 8, ptr %21) #6
  br label %127

119:                                              ; preds = %82
  %120 = load ptr, ptr %11, align 8
  %121 = load i32, ptr @hf_mip6_opt_acc_net_id_sub_opt_net_name_data, align 4
  %122 = load ptr, ptr %5, align 8
  %123 = load i32, ptr %19, align 4
  %124 = load i8, ptr %15, align 1
  %125 = zext i8 %124 to i32
  %126 = call ptr @proto_tree_add_item(ptr noundef %120, i32 noundef %121, ptr noundef %122, i32 noundef %123, i32 noundef %125, i32 noundef 2)
  br label %127

127:                                              ; preds = %119, %106
  %128 = load i32, ptr %19, align 4
  %129 = load i8, ptr %15, align 1
  %130 = zext i8 %129 to i32
  %131 = add i32 %128, %130
  store i32 %131, ptr %19, align 4
  %132 = load ptr, ptr %5, align 8
  %133 = load i32, ptr %19, align 4
  %134 = call zeroext i8 @tvb_get_uint8(ptr noundef %132, i32 noundef %133)
  store i8 %134, ptr %16, align 1
  %135 = load ptr, ptr %11, align 8
  %136 = load i32, ptr @hf_mip6_opt_acc_net_id_sub_opt_ap_name_len, align 4
  %137 = load ptr, ptr %5, align 8
  %138 = load i32, ptr %19, align 4
  %139 = call ptr @proto_tree_add_item(ptr noundef %135, i32 noundef %136, ptr noundef %137, i32 noundef %138, i32 noundef 1, i32 noundef 0)
  %140 = load i32, ptr %19, align 4
  %141 = add i32 %140, 1
  store i32 %141, ptr %19, align 4
  %142 = load ptr, ptr %11, align 8
  %143 = load i32, ptr @hf_mip6_opt_acc_net_id_sub_opt_ap_name, align 4
  %144 = load ptr, ptr %5, align 8
  %145 = load i32, ptr %19, align 4
  %146 = load i8, ptr %16, align 1
  %147 = zext i8 %146 to i32
  %148 = load ptr, ptr %6, align 8
  %149 = getelementptr inbounds nuw %struct._packet_info, ptr %148, i32 0, i32 51
  %150 = load ptr, ptr %149, align 8
  %151 = call ptr @proto_tree_add_item_ret_string(ptr noundef %142, i32 noundef %143, ptr noundef %144, i32 noundef %145, i32 noundef %147, i32 noundef 2, ptr noundef %150, ptr noundef %17)
  %152 = load ptr, ptr %10, align 8
  %153 = load ptr, ptr %17, align 8
  call void (ptr, ptr, ...) @proto_item_append_text(ptr noundef %152, ptr noundef @.str.766, ptr noundef %153)
  %154 = load i32, ptr %19, align 4
  %155 = load i8, ptr %16, align 1
  %156 = zext i8 %155 to i32
  %157 = add i32 %154, %156
  store i32 %157, ptr %19, align 4
  br label %206

158:                                              ; preds = %38
  %159 = load ptr, ptr %11, align 8
  %160 = load i32, ptr @hf_mip6_opt_acc_net_id_sub_opt_geo_latitude_degrees, align 4
  %161 = load ptr, ptr %5, align 8
  %162 = load i32, ptr %19, align 4
  %163 = call ptr @proto_tree_add_item(ptr noundef %159, i32 noundef %160, ptr noundef %161, i32 noundef %162, i32 noundef 3, i32 noundef 0)
  %164 = load i32, ptr %19, align 4
  %165 = add i32 %164, 3
  store i32 %165, ptr %19, align 4
  %166 = load ptr, ptr %11, align 8
  %167 = load i32, ptr @hf_mip6_opt_acc_net_id_sub_opt_geo_longitude_degrees, align 4
  %168 = load ptr, ptr %5, align 8
  %169 = load i32, ptr %19, align 4
  %170 = call ptr @proto_tree_add_item(ptr noundef %166, i32 noundef %167, ptr noundef %168, i32 noundef %169, i32 noundef 3, i32 noundef 0)
  %171 = load i32, ptr %19, align 4
  %172 = add i32 %171, 3
  store i32 %172, ptr %19, align 4
  br label %206

173:                                              ; preds = %38
  %174 = load ptr, ptr %11, align 8
  %175 = load i32, ptr @hf_mip6_opt_acc_net_id_sub_opt_op_id_type, align 4
  %176 = load ptr, ptr %5, align 8
  %177 = load i32, ptr %19, align 4
  %178 = call ptr @proto_tree_add_item(ptr noundef %174, i32 noundef %175, ptr noundef %176, i32 noundef %177, i32 noundef 1, i32 noundef 0)
  %179 = load i32, ptr %19, align 4
  %180 = add i32 %179, 1
  store i32 %180, ptr %19, align 4
  %181 = load ptr, ptr %11, align 8
  %182 = load i32, ptr @hf_mip6_opt_acc_net_id_sub_opt_op_id, align 4
  %183 = load ptr, ptr %5, align 8
  %184 = load i32, ptr %19, align 4
  %185 = load i16, ptr %12, align 2
  %186 = sext i16 %185 to i32
  %187 = sub i32 %186, 1
  %188 = call ptr @proto_tree_add_item(ptr noundef %181, i32 noundef %182, ptr noundef %183, i32 noundef %184, i32 noundef %187, i32 noundef 0)
  %189 = load i32, ptr %19, align 4
  %190 = load i16, ptr %12, align 2
  %191 = sext i16 %190 to i32
  %192 = add i32 %189, %191
  %193 = sub i32 %192, 1
  store i32 %193, ptr %19, align 4
  br label %206

194:                                              ; preds = %38
  %195 = load ptr, ptr %11, align 8
  %196 = load ptr, ptr %6, align 8
  %197 = load ptr, ptr %5, align 8
  %198 = load i32, ptr %19, align 4
  %199 = load i16, ptr %12, align 2
  %200 = sext i16 %199 to i32
  %201 = call ptr @proto_tree_add_expert(ptr noundef %195, ptr noundef %196, ptr noundef @ei_mip6_ani_type_not_dissected, ptr noundef %197, i32 noundef %198, i32 noundef %200)
  %202 = load i32, ptr %19, align 4
  %203 = load i16, ptr %12, align 2
  %204 = sext i16 %203 to i32
  %205 = add i32 %202, %204
  store i32 %205, ptr %19, align 4
  br label %206

206:                                              ; preds = %194, %173, %158, %127
  br label %34, !llvm.loop !8

207:                                              ; preds = %34
  %208 = load ptr, ptr %5, align 8
  %209 = call i32 @tvb_captured_length(ptr noundef %208)
  call void @llvm.lifetime.end.p0(i64 4, ptr %20) #6
  call void @llvm.lifetime.end.p0(i64 4, ptr %19) #6
  call void @llvm.lifetime.end.p0(i64 4, ptr %18) #6
  call void @llvm.lifetime.end.p0(i64 8, ptr %17) #6
  call void @llvm.lifetime.end.p0(i64 1, ptr %16) #6
  call void @llvm.lifetime.end.p0(i64 1, ptr %15) #6
  call void @llvm.lifetime.end.p0(i64 1, ptr %14) #6
  call void @llvm.lifetime.end.p0(i64 1, ptr %13) #6
  call void @llvm.lifetime.end.p0(i64 2, ptr %12) #6
  call void @llvm.lifetime.end.p0(i64 8, ptr %11) #6
  call void @llvm.lifetime.end.p0(i64 8, ptr %10) #6
  call void @llvm.lifetime.end.p0(i64 8, ptr %9) #6
  ret i32 %209
}