; Function Attrs: null_pointer_is_valid sspstrong uwtable
define internal i32 @dissect_pmip6_opt_acc_net_id(ptr noundef %0, ptr noundef %1, ptr noundef %2, ptr readnone captures(none) %3) #0 {
  %5 = alloca ptr, align 8
  %6 = alloca ptr, align 8
  %7 = alloca ptr, align 8
  call void @llvm.lifetime.start.p0(i64 8, ptr nonnull %5) #5
  call void @llvm.lifetime.start.p0(i64 8, ptr nonnull %6) #5
  %8 = tail call i32 @tvb_reported_length(ptr noundef %0)
  %9 = add i32 %8, -2
  %10 = tail call i32 @tvb_reported_length(ptr noundef %0)
  %11 = load i32, ptr @proto_mip6_option_acc_net_id, align 4
  %12 = load i32, ptr @ett_mip6_opt_acc_net_id, align 4
  %13 = call fastcc ptr @mip6_var_option_header(ptr noundef %2, ptr noundef %1, ptr noundef %0, i32 noundef %11, i32 noundef %12, ptr noundef nonnull %5, i32 noundef %9, i32 noundef 3)
  %14 = icmp sgt i32 %10, 2
  br i1 %14, label %.lr.ph, label %._crit_edge

.lr.ph:                                           ; preds = %4
  %15 = getelementptr inbounds nuw i8, ptr %1, i64 408
  br label %16

16:                                               ; preds = %.lr.ph, %83
  %.090 = phi i32 [ 2, %.lr.ph ], [ %.1, %83 ]
  %17 = load i32, ptr @hf_mip6_opt_acc_net_id_sub, align 4
  %18 = call ptr @proto_tree_add_item(ptr noundef %13, i32 noundef %17, ptr noundef %0, i32 noundef %.090, i32 noundef 2, i32 noundef 0)
  %19 = load i32, ptr @ett_mip6_sub_opt_acc_net_id, align 4
  %20 = call ptr @proto_item_add_subtree(ptr noundef %18, i32 noundef %19)
  %21 = load i32, ptr @hf_mip6_opt_acc_net_id_sub_opt, align 4
  %22 = call ptr @proto_tree_add_item(ptr noundef %20, i32 noundef %21, ptr noundef %0, i32 noundef %.090, i32 noundef 1, i32 noundef 0)
  %23 = call zeroext i8 @tvb_get_uint8(ptr noundef %0, i32 noundef %.090)
  %24 = add nsw i32 %.090, 1
  %25 = load i32, ptr @hf_mip6_opt_acc_net_id_sub_opt_len, align 4
  %26 = call ptr @proto_tree_add_item(ptr noundef %20, i32 noundef %25, ptr noundef %0, i32 noundef %24, i32 noundef 1, i32 noundef 0)
  %27 = call zeroext i8 @tvb_get_uint8(ptr noundef %0, i32 noundef %24)
  %28 = add i32 %.090, 2
  %29 = zext i8 %23 to i32
  %30 = call ptr @val_to_str(i32 noundef %29, ptr noundef nonnull @mmip6_opt_acc_net_id_sub_opt_vals, ptr noundef nonnull @.str.764)
  %31 = zext i8 %27 to i32
  call void (ptr, ptr, ...) @proto_item_append_text(ptr noundef %18, ptr noundef nonnull @.str.763, ptr noundef %30, i32 noundef %29, i32 noundef %31)
  %32 = add nuw nsw i32 %31, 2
  call void @proto_item_set_len(ptr noundef %18, i32 noundef %32)
  switch i8 %23, label %80 [
    i8 1, label %33
    i8 2, label %65
    i8 3, label %72
  ]

33:                                               ; preds = %16
  %34 = call zeroext i8 @tvb_get_uint8(ptr noundef %0, i32 noundef %28)
  %35 = load i32, ptr @hf_mip6_opt_acc_net_id_sub_opt_e_bit, align 4
  %36 = call ptr @proto_tree_add_item(ptr noundef %20, i32 noundef %35, ptr noundef %0, i32 noundef %28, i32 noundef 1, i32 noundef 0)
  %37 = add i32 %.090, 3
  %38 = call zeroext i8 @tvb_get_uint8(ptr noundef %0, i32 noundef %37)
  %39 = load i32, ptr @hf_mip6_opt_acc_net_id_sub_opt_net_name_len, align 4
  %40 = call ptr @proto_tree_add_item(ptr noundef %20, i32 noundef %39, ptr noundef %0, i32 noundef %37, i32 noundef 1, i32 noundef 0)
  %41 = add i32 %.090, 4
  %42 = icmp eq i8 %34, -128
  br i1 %42, label %43, label %49

43:                                               ; preds = %33
  call void @llvm.lifetime.start.p0(i64 8, ptr nonnull %7) #5
  %44 = load i32, ptr @hf_mip6_opt_acc_net_id_sub_opt_net_name, align 4
  %45 = zext i8 %38 to i32
  %46 = load ptr, ptr %15, align 8
  %47 = call ptr @proto_tree_add_item_ret_string(ptr noundef %20, i32 noundef %44, ptr noundef %0, i32 noundef %41, i32 noundef %45, i32 noundef 2, ptr noundef %46, ptr noundef nonnull %7)
  %48 = load ptr, ptr %7, align 8
  call void (ptr, ptr, ...) @proto_item_append_text(ptr noundef %18, ptr noundef nonnull @.str.765, ptr noundef %48)
  call void @llvm.lifetime.end.p0(i64 8, ptr nonnull %7) #5
  br label %53

49:                                               ; preds = %33
  %50 = load i32, ptr @hf_mip6_opt_acc_net_id_sub_opt_net_name_data, align 4
  %51 = zext i8 %38 to i32
  %52 = call ptr @proto_tree_add_item(ptr noundef %20, i32 noundef %50, ptr noundef %0, i32 noundef %41, i32 noundef %51, i32 noundef 2)
  br label %53

53:                                               ; preds = %49, %43
  %.pre-phi = phi i32 [ %51, %49 ], [ %45, %43 ]
  %54 = add i32 %41, %.pre-phi
  %55 = call zeroext i8 @tvb_get_uint8(ptr noundef %0, i32 noundef %54)
  %56 = load i32, ptr @hf_mip6_opt_acc_net_id_sub_opt_ap_name_len, align 4
  %57 = call ptr @proto_tree_add_item(ptr noundef %20, i32 noundef %56, ptr noundef %0, i32 noundef %54, i32 noundef 1, i32 noundef 0)
  %58 = add i32 %54, 1
  %59 = load i32, ptr @hf_mip6_opt_acc_net_id_sub_opt_ap_name, align 4
  %60 = zext i8 %55 to i32
  %61 = load ptr, ptr %15, align 8
  %62 = call ptr @proto_tree_add_item_ret_string(ptr noundef %20, i32 noundef %59, ptr noundef %0, i32 noundef %58, i32 noundef %60, i32 noundef 2, ptr noundef %61, ptr noundef nonnull %6)
  %63 = load ptr, ptr %6, align 8
  call void (ptr, ptr, ...) @proto_item_append_text(ptr noundef %18, ptr noundef nonnull @.str.766, ptr noundef %63)
  %64 = add i32 %58, %60
  br label %83

65:                                               ; preds = %16
  %66 = load i32, ptr @hf_mip6_opt_acc_net_id_sub_opt_geo_latitude_degrees, align 4
  %67 = call ptr @proto_tree_add_item(ptr noundef %20, i32 noundef %66, ptr noundef %0, i32 noundef %28, i32 noundef 3, i32 noundef 0)
  %68 = add i32 %.090, 5
  %69 = load i32, ptr @hf_mip6_opt_acc_net_id_sub_opt_geo_longitude_degrees, align 4
  %70 = call ptr @proto_tree_add_item(ptr noundef %20, i32 noundef %69, ptr noundef %0, i32 noundef %68, i32 noundef 3, i32 noundef 0)
  %71 = add i32 %.090, 8
  br label %83

72:                                               ; preds = %16
  %73 = load i32, ptr @hf_mip6_opt_acc_net_id_sub_opt_op_id_type, align 4
  %74 = call ptr @proto_tree_add_item(ptr noundef %20, i32 noundef %73, ptr noundef %0, i32 noundef %28, i32 noundef 1, i32 noundef 0)
  %75 = add i32 %.090, 3
  %76 = load i32, ptr @hf_mip6_opt_acc_net_id_sub_opt_op_id, align 4
  %77 = add nsw i32 %31, -1
  %78 = call ptr @proto_tree_add_item(ptr noundef %20, i32 noundef %76, ptr noundef %0, i32 noundef %75, i32 noundef %77, i32 noundef 0)
  %79 = add i32 %28, %31
  br label %83

80:                                               ; preds = %16
  %81 = call ptr @proto_tree_add_expert(ptr noundef %20, ptr noundef %1, ptr noundef nonnull @ei_mip6_ani_type_not_dissected, ptr noundef %0, i32 noundef %28, i32 noundef %31)
  %82 = add i32 %28, %31
  br label %83

83:                                               ; preds = %80, %72, %65, %53
  %.1 = phi i32 [ %82, %80 ], [ %79, %72 ], [ %71, %65 ], [ %64, %53 ]
  %84 = icmp slt i32 %.1, %10
  br i1 %84, label %16, label %._crit_edge, !llvm.loop !10

._crit_edge:                                      ; preds = %83, %4
  %85 = call i32 @tvb_captured_length(ptr noundef %0)
  call void @llvm.lifetime.end.p0(i64 8, ptr nonnull %6) #5
  call void @llvm.lifetime.end.p0(i64 8, ptr nonnull %5) #5
  ret i32 %85
}